(dp1
S'screenToShow'
p2
I0
sS'fullScreen'
p3
I01
sS'screenColor'
p4
(I128
I128
I128
tp5
sS'fixCrossSize'
p6
I100
sS'movieSize'
p7
(I800
I500
tp8
sS'blockDur_TRs'
p9
I20
sS'movieFolder'
p10
S'Images/'
p11
sS'textHeight'
p12
I40
sS'triggerKey'
p13
S'5'
sS'restDur_TRs'
p14
I20
sS'tStartup_TRs'
p15
I0
sS'fixCrossPos'
p16
(lp17
I0
aI0
asS'skipPrompts'
p18
I00
sS'promptDir'
p19
S'Text/'
p20
sS'nBlocks'
p21
I12
sS'condition'
p22
S'TapRight'
p23
s.