(dp1
S'paramsFile'
p2
V/Users/huberl/Documents/Programme_und_Grafik/Psychopy/DLPFC_again/LetterOrder_taskscripts_fromEmily/TappingParams.pickle
p3
sS'session'
p4
I1
sS'skipPrompts'
p5
I00
sS'subject'
p6
V1
s.