(dp1
S'paramsFile'
p2
V/Users/l.huber/Documents/Programme_und_Grafik/Phychopy_git/TappingWithTrTiming/Pickles/TappingParams.pickle
p3
sS'session'
p4
I111
sS'skipPrompts'
p5
I00
sS'condition'
p6
VsensationOnly
p7
sS'subject'
p8
Vtt1
p9
s.