(dp1
S'paramsFile'
p2
V/Users/huberl/Documents/Programme_und_Grafik/Psychopy/DLPFC/Dec_2018/LetterOrder_20trialRUN.pickle
p3
sS'session'
p4
I6
sS'skipPrompts'
p5
I01
sS'subject'
p6
Voffline_test
p7
s.