(dp1
S'fullScreen'
p2
I01
sS'letters'
p3
S'ABCDEFGHIJKLMNOPQRSTUVWXYZ'
p4
sS'stringDur'
p5
F2.5
sS'triggerKey'
p6
S'5'
sS'nLetters'
p7
I5
sS'screenToShow'
p8
I0
sS'cueDur'
p9
F1
sS'promptFile'
p10
S'LetterOrderPrompts_5button.txt'
p11
sS'promptDir'
p12
S'Prompts/'
p13
sS'minISI'
p14
F5
sS'pauseDur'
p15
F1.5
sS'minDelayDur'
p16
F9
sS'fixCrossSize'
p17
I50
sS'maxDelayDur'
p18
F9
sS'maxISI'
p19
F5
sS'tCoolDown'
p20
F9
sS'fixCrossPos'
p21
(lp22
I0
aI0
asS'cues'
p23
(lp24
S'REMEMBER'
p25
aS'ALPHABETIZE'
p26
asS'testDur'
p27
F1
sS'screenColor'
p28
(I128
I128
I128
tp29
sS'catchProb'
p30
F0
sS'sessionDur'
p31
F360
sS'rememberProb'
p32
F0
sS'skipPrompts'
p33
I00
sS'tStartup'
p34
F6
sS'respKeys'
p35
(lp36
S'1'
aS'2'
aS'3'
aS'4'
aS'6'
as.